; Function Attrs: mustprogress nounwind uwtable
define dso_local void @_ZN4llvm21MultiHazardRecognizer15EmitInstructionEPNS_12MachineInstrE(ptr noundef nonnull align 8 dereferenceable(64) %0, ptr noundef %1) unnamed_addr #0 align 2 {
  %3 = getelementptr inbounds nuw i8, ptr %0, i64 16
  %4 = load ptr, ptr %3, align 8
  %5 = tail call noundef i64 @_ZNK4llvm15SmallVectorBaseIjE4sizeEv(ptr noundef nonnull align 8 dereferenceable(16) %3) #6
  %6 = getelementptr inbounds %"class.std::unique_ptr", ptr %4, i64 %5
  %.not9 = icmp eq i64 %5, 0
  br i1 %.not9, label %._crit_edge, label %.lr.ph

.lr.ph:                                           ; preds = %2, %.lr.ph
  %.010 = phi ptr [ %11, %.lr.ph ], [ %4, %2 ]
  %7 = load ptr, ptr %.010, align 8
  %8 = load ptr, ptr %7, align 8
  %9 = getelementptr inbounds i8, ptr %8, i64 48
  %10 = load ptr, ptr %9, align 8
  tail call void %10(ptr noundef nonnull align 8 dereferenceable(12) %7, ptr noundef %1) #6
  %11 = getelementptr inbounds i8, ptr %.010, i64 8
  %.not = icmp eq ptr %11, %6
  br i1 %.not, label %._crit_edge, label %.lr.ph

._crit_edge:                                      ; preds = %.lr.ph, %2
  ret void
}